; Function Attrs: mustprogress nofree norecurse nosync nounwind willreturn memory(argmem: read) uwtable
define i16 @_ZN10OpenSubdiv6v3_6_03Vtr8internal5Level4VTag9BitwiseOrEPKS4_i(ptr noundef readonly captures(none) %0, i32 noundef %1) local_unnamed_addr #15 align 2 {
  %.0.copyload.i = load i16, ptr %0, align 2
  %3 = icmp sgt i32 %1, 1
  br i1 %3, label %.lr.ph.preheader, label %._crit_edge

.lr.ph.preheader:                                 ; preds = %2
  %wide.trip.count = zext nneg i32 %1 to i64
  br label %.lr.ph

.lr.ph:                                           ; preds = %.lr.ph.preheader, %.lr.ph
  %indvars.iv = phi i64 [ 1, %.lr.ph.preheader ], [ %indvars.iv.next, %.lr.ph ]
  %.079 = phi i16 [ %.0.copyload.i, %.lr.ph.preheader ], [ %5, %.lr.ph ]
  %4 = getelementptr inbounds nuw %"struct.OpenSubdiv::v3_6_0::Vtr::internal::Level::VTag", ptr %0, i64 %indvars.iv
  %.0.copyload.i8 = load i16, ptr %4, align 2
  %5 = or i16 %.0.copyload.i8, %.079
  %indvars.iv.next = add nuw nsw i64 %indvars.iv, 1
  %exitcond.not = icmp eq i64 %indvars.iv.next, %wide.trip.count
  br i1 %exitcond.not, label %._crit_edge, label %.lr.ph, !llvm.loop !42

._crit_edge:                                      ; preds = %.lr.ph, %2
  %.07.lcssa = phi i16 [ %.0.copyload.i, %2 ], [ %5, %.lr.ph ]
  ret i16 %.07.lcssa
}